; Function Attrs: nounwind uwtable
define internal void @DbRollbackHandler(ptr noundef readonly captures(none) %0) #0 {
  %2 = load ptr, ptr @tclStubsPtr, align 8, !tbaa !3
  %3 = getelementptr inbounds nuw i8, ptr %2, i64 2360
  %4 = load ptr, ptr %3, align 8, !tbaa !121
  %5 = getelementptr inbounds nuw i8, ptr %0, i64 8
  %6 = load ptr, ptr %5, align 8, !tbaa !39
  %7 = getelementptr inbounds nuw i8, ptr %0, i64 120
  %8 = load ptr, ptr %7, align 8, !tbaa !202
  %9 = tail call i32 %4(ptr noundef %6, ptr noundef %8, i32 noundef 0) #14
  %.not = icmp eq i32 %9, 0
  br i1 %.not, label %15, label %10

10:                                               ; preds = %1
  %11 = load ptr, ptr @tclStubsPtr, align 8, !tbaa !3
  %12 = getelementptr inbounds nuw i8, ptr %11, i64 624
  %13 = load ptr, ptr %12, align 8, !tbaa !211
  %14 = load ptr, ptr %5, align 8, !tbaa !39
  tail call void %13(ptr noundef %14) #14
  br label %15

15:                                               ; preds = %10, %1
  ret void
}